target datalayout = "e-m:e-p270:32:32-p271:32:32-p272:64:64-i64:64-i128:128-f80:128-n8:16:32:64-S128"
target triple = "x86_64-pc-linux-gnu"

%"struct.pbrt::StatIntDistribution" = type { i64, i64, i64, i64 }
%class.anon.16 = type { i8 }

@.str.36 = private unnamed_addr constant [37 x i8] c"Integrator/Lights sampled per lookup\00", align 1
@_ZN4pbrtL14nLightsSampledE = internal thread_local global %"struct.pbrt::StatIntDistribution" { i64 0, i64 0, i64 9223372036854775807, i64 -9223372036854775808 }, align 8

; Function Attrs: mustprogress nounwind uwtable
define linkonce_odr dso_local noundef i64 @_ZNSt14numeric_limitsIlE3minEv() #6 comdat align 2 {
  ret i64 -9223372036854775808
}

; Function Attrs: mustprogress nounwind uwtable
define linkonce_odr dso_local noundef i64 @_ZNSt14numeric_limitsIlE6lowestEv() #6 comdat align 2 {
  %1 = call noundef i64 @_ZNSt14numeric_limitsIlE3minEv() #20
  ret i64 %1
}

; Function Attrs: mustprogress nounwind uwtable
define linkonce_odr dso_local noundef i64 @_ZNSt14numeric_limitsIlE3maxEv() #6 comdat align 2 {
  ret i64 9223372036854775807
}

; Function Attrs: inlinehint mustprogress uwtable
define internal void @"_ZNK4pbrt3$_4clERNS_16StatsAccumulatorE"(ptr noundef nonnull align 1 dereferenceable(1) %0, ptr noundef nonnull align 8 dereferenceable(8) %1) #5 align 2 {
  %3 = alloca ptr, align 8
  %4 = alloca ptr, align 8
  store ptr %0, ptr %3, align 8, !tbaa !13
  store ptr %1, ptr %4, align 8, !tbaa !238
  %5 = load ptr, ptr %4, align 8, !tbaa !238
  %6 = call align 8 ptr @llvm.threadlocal.address.p0(ptr align 8 @_ZN4pbrtL14nLightsSampledE)
  %7 = getelementptr inbounds nuw %"struct.pbrt::StatIntDistribution", ptr %6, i32 0, i32 0
  %8 = load i64, ptr %7, align 8, !tbaa !348
  %9 = call align 8 ptr @llvm.threadlocal.address.p0(ptr align 8 @_ZN4pbrtL14nLightsSampledE)
  %10 = getelementptr inbounds nuw %"struct.pbrt::StatIntDistribution", ptr %9, i32 0, i32 1
  %11 = load i64, ptr %10, align 8, !tbaa !350
  %12 = call align 8 ptr @llvm.threadlocal.address.p0(ptr align 8 @_ZN4pbrtL14nLightsSampledE)
  %13 = getelementptr inbounds nuw %"struct.pbrt::StatIntDistribution", ptr %12, i32 0, i32 2
  %14 = load i64, ptr %13, align 8, !tbaa !351
  %15 = call align 8 ptr @llvm.threadlocal.address.p0(ptr align 8 @_ZN4pbrtL14nLightsSampledE)
  %16 = getelementptr inbounds nuw %"struct.pbrt::StatIntDistribution", ptr %15, i32 0, i32 3
  %17 = load i64, ptr %16, align 8, !tbaa !352
  call void @_ZN4pbrt16StatsAccumulator21ReportIntDistributionEPKcllll(ptr noundef nonnull align 8 dereferenceable(8) %5, ptr noundef @.str.36, i64 noundef %8, i64 noundef %11, i64 noundef %14, i64 noundef %17)
  %18 = call align 8 ptr @llvm.threadlocal.address.p0(ptr align 8 @_ZN4pbrtL14nLightsSampledE)
  %19 = getelementptr inbounds nuw %"struct.pbrt::StatIntDistribution", ptr %18, i32 0, i32 0
  store i64 0, ptr %19, align 8, !tbaa !348
  %20 = call align 8 ptr @llvm.threadlocal.address.p0(ptr align 8 @_ZN4pbrtL14nLightsSampledE)
  %21 = getelementptr inbounds nuw %"struct.pbrt::StatIntDistribution", ptr %20, i32 0, i32 1
  store i64 0, ptr %21, align 8, !tbaa !350
  %22 = call noundef i64 @_ZNSt14numeric_limitsIlE3maxEv() #20
  %23 = call align 8 ptr @llvm.threadlocal.address.p0(ptr align 8 @_ZN4pbrtL14nLightsSampledE)
  %24 = getelementptr inbounds nuw %"struct.pbrt::StatIntDistribution", ptr %23, i32 0, i32 2
  store i64 %22, ptr %24, align 8, !tbaa !351
  %25 = call noundef i64 @_ZNSt14numeric_limitsIlE6lowestEv() #20
  %26 = call align 8 ptr @llvm.threadlocal.address.p0(ptr align 8 @_ZN4pbrtL14nLightsSampledE)
  %27 = getelementptr inbounds nuw %"struct.pbrt::StatIntDistribution", ptr %26, i32 0, i32 3
  store i64 %25, ptr %27, align 8, !tbaa !352
  ret void
}

; Function Attrs: inlinehint mustprogress uwtable
define internal void @"_ZN4pbrt3$_48__invokeERNS_16StatsAccumulatorE"(ptr noundef nonnull align 8 dereferenceable(8) %0) #5 align 2 {
  %2 = alloca ptr, align 8
  %3 = alloca %class.anon.16, align 1
  store ptr %0, ptr %2, align 8, !tbaa !238
  %4 = load ptr, ptr %2, align 8
  call void @"_ZNK4pbrt3$_4clERNS_16StatsAccumulatorE"(ptr noundef nonnull align 1 dereferenceable(1) %3, ptr noundef nonnull align 8 dereferenceable(8) %4)
  ret void
}