; Function Attrs: inlinehint mustprogress uwtable
define internal void @"_ZN4pbrt3$_48__invokeERNS_16StatsAccumulatorE"(ptr noundef nonnull align 8 dereferenceable(8) %0) #10 align 2 {
  %2 = tail call align 8 ptr @llvm.threadlocal.address.p0(ptr align 8 @_ZN4pbrtL14nLightsSampledE)
  %3 = load i64, ptr %2, align 8, !tbaa !303
  %4 = getelementptr inbounds nuw i8, ptr %2, i64 8
  %5 = load i64, ptr %4, align 8, !tbaa !305
  %6 = getelementptr inbounds nuw i8, ptr %2, i64 16
  %7 = load i64, ptr %6, align 8, !tbaa !306
  %8 = getelementptr inbounds nuw i8, ptr %2, i64 24
  %9 = load i64, ptr %8, align 8, !tbaa !307
  tail call void @_ZN4pbrt16StatsAccumulator21ReportIntDistributionEPKcllll(ptr noundef nonnull align 8 dereferenceable(8) %0, ptr noundef nonnull @.str.36, i64 noundef %3, i64 noundef %5, i64 noundef %7, i64 noundef %9)
  tail call void @llvm.memset.p0.i64(ptr noundef nonnull align 8 dereferenceable(16) %2, i8 0, i64 16, i1 false)
  store i64 9223372036854775807, ptr %6, align 8, !tbaa !306
  store i64 -9223372036854775808, ptr %8, align 8, !tbaa !307
  ret void
}